; Function Attrs: mustprogress uwtable
define void @_ZN8facebook5velox4exec12CoalesceExpr11resolveTypeERKSt6vectorISt10shared_ptrIKNS0_4TypeEESaIS7_EE(ptr noalias nocapture writeonly sret(%"class.std::shared_ptr") align 8 %agg.result, ptr nocapture noundef nonnull readonly align 8 dereferenceable(24) %argTypes) local_unnamed_addr #0 align 2 personality ptr @__gxx_personality_v0 {
entry:
  %_M_finish.i = getelementptr inbounds i8, ptr %argTypes, i64 8
  %0 = load ptr, ptr %_M_finish.i, align 8
  %1 = load ptr, ptr %argTypes, align 8
  %cmp.not = icmp eq ptr %0, %1
  br i1 %cmp.not, label %if.then, label %for.cond.preheader

for.cond.preheader:                               ; preds = %entry
  %sub.ptr.lhs.cast.i813 = ptrtoint ptr %0 to i64
  %sub.ptr.rhs.cast.i914 = ptrtoint ptr %1 to i64
  %sub.ptr.sub.i1015 = sub i64 %sub.ptr.lhs.cast.i813, %sub.ptr.rhs.cast.i914
  %cmp217 = icmp ugt i64 %sub.ptr.sub.i1015, 16
  br i1 %cmp217, label %for.body, label %for.end

if.then:                                          ; preds = %entry
  tail call void @llvm.trap()
  unreachable

for.cond:                                         ; preds = %for.body
  %indvars.iv.next = add nuw i64 %indvars.iv, 1
  %2 = load ptr, ptr %_M_finish.i, align 8
  %3 = load ptr, ptr %argTypes, align 8
  %sub.ptr.lhs.cast.i8 = ptrtoint ptr %2 to i64
  %sub.ptr.rhs.cast.i9 = ptrtoint ptr %3 to i64
  %sub.ptr.sub.i10 = sub i64 %sub.ptr.lhs.cast.i8, %sub.ptr.rhs.cast.i9
  %sub.ptr.div.i11 = ashr exact i64 %sub.ptr.sub.i10, 4
  %cmp2 = icmp ugt i64 %sub.ptr.div.i11, %indvars.iv.next
  br i1 %cmp2, label %for.body, label %for.end, !llvm.loop !13

for.body:                                         ; preds = %for.cond.preheader, %for.cond
  %indvars.iv = phi i64 [ %indvars.iv.next, %for.cond ], [ 1, %for.cond.preheader ]
  %4 = phi ptr [ %3, %for.cond ], [ %1, %for.cond.preheader ]
  %5 = load ptr, ptr %4, align 8
  %add.ptr.i = getelementptr inbounds %"class.std::shared_ptr", ptr %4, i64 %indvars.iv
  %6 = load ptr, ptr %add.ptr.i, align 8
  %vtable = load ptr, ptr %5, align 8
  %vfn = getelementptr inbounds i8, ptr %vtable, i64 96
  %7 = load ptr, ptr %vfn, align 8
  %call8 = tail call noundef zeroext i1 %7(ptr noundef nonnull align 8 dereferenceable(17) %5, ptr noundef nonnull align 8 dereferenceable(17) %6)
  br i1 %call8, label %for.cond, label %if.then11

if.then11:                                        ; preds = %for.body
  tail call void @llvm.trap()
  unreachable

for.end:                                          ; preds = %for.cond, %for.cond.preheader
  %.lcssa = phi ptr [ %1, %for.cond.preheader ], [ %3, %for.cond ]
  %8 = load <2 x ptr>, ptr %.lcssa, align 8
  store <2 x ptr> %8, ptr %agg.result, align 8
  %9 = extractelement <2 x ptr> %8, i64 1
  %cmp.not.i.i.i = icmp eq ptr %9, null
  br i1 %cmp.not.i.i.i, label %_ZNSt10shared_ptrIKN8facebook5velox4TypeEEC2ERKS4_.exit, label %if.then.i.i.i

if.then.i.i.i:                                    ; preds = %for.end
  %_M_use_count.i.i.i.i = getelementptr inbounds i8, ptr %9, i64 8
  %10 = load i8, ptr @__libc_single_threaded, align 1
  %tobool.i.i.not.i.i.i.i = icmp eq i8 %10, 0
  br i1 %tobool.i.i.not.i.i.i.i, label %if.else.i.i.i.i.i, label %if.then.i.i.i.i.i

if.then.i.i.i.i.i:                                ; preds = %if.then.i.i.i
  %11 = load i32, ptr %_M_use_count.i.i.i.i, align 4
  %add.i.i.i.i.i = add nsw i32 %11, 1
  store i32 %add.i.i.i.i.i, ptr %_M_use_count.i.i.i.i, align 4
  br label %_ZNSt10shared_ptrIKN8facebook5velox4TypeEEC2ERKS4_.exit

if.else.i.i.i.i.i:                                ; preds = %if.then.i.i.i
  %12 = atomicrmw volatile add ptr %_M_use_count.i.i.i.i, i32 1 acq_rel, align 4
  br label %_ZNSt10shared_ptrIKN8facebook5velox4TypeEEC2ERKS4_.exit

_ZNSt10shared_ptrIKN8facebook5velox4TypeEEC2ERKS4_.exit: ; preds = %for.end, %if.then.i.i.i.i.i, %if.else.i.i.i.i.i
  ret void
}